target datalayout = "e-m:e-p270:32:32-p271:32:32-p272:64:64-i64:64-i128:128-f80:128-n8:16:32:64-S128"
target triple = "x86_64-pc-linux-gnu"

%"class.std::vector" = type { %"struct.std::_Vector_base" }
%"struct.std::_Vector_base" = type { %"struct.std::_Vector_base<std::__cxx11::basic_string<char>, std::allocator<std::__cxx11::basic_string<char>>>::_Vector_impl" }
%"struct.std::_Vector_base<std::__cxx11::basic_string<char>, std::allocator<std::__cxx11::basic_string<char>>>::_Vector_impl" = type { %"struct.std::_Vector_base<std::__cxx11::basic_string<char>, std::allocator<std::__cxx11::basic_string<char>>>::_Vector_impl_data" }
%"struct.std::_Vector_base<std::__cxx11::basic_string<char>, std::allocator<std::__cxx11::basic_string<char>>>::_Vector_impl_data" = type { ptr, ptr, ptr }
%"class.std::__cxx11::basic_string" = type { %"struct.std::__cxx11::basic_string<char>::_Alloc_hider", i64, %union.anon }
%"struct.std::__cxx11::basic_string<char>::_Alloc_hider" = type { ptr }
%union.anon = type { i64, [8 x i8] }
%class.TransTableL = type { %class.TransTable, i32, i32, i32, i32, i32, i32, %"struct.TransTableL::pageStatsType", [8192 x %"struct.TransTableL::aggrType"], [12 x [4 x ptr]], [12 x [4 x ptr]], ptr, ptr, %"struct.TransTableL::harvestedType", i32, i32 }
%class.TransTable = type { ptr }
%"struct.TransTableL::pageStatsType" = type { i32, i32, i32, i32, i32 }
%"struct.TransTableL::aggrType" = type { [4 x i32], [4 x [4 x i32]] }
%"struct.TransTableL::harvestedType" = type { i32, [1000 x ptr] }
%"struct.TransTableL::distHashType" = type { i32, i32, [32 x %"struct.TransTableL::posSearchType"] }
%"struct.TransTableL::posSearchType" = type { ptr, i64 }
%"struct.TransTableL::winBlockType" = type { i32, i32, i32, [125 x %"struct.TransTableL::winMatchType"] }
%"struct.TransTableL::winMatchType" = type { i32, i32, i32, i32, i32, i32, i32, i32, i32, i32, i32, %struct.nodeCardsType }
%struct.nodeCardsType = type { i8, i8, i8, i8, [4 x i8] }

@_ZL7playersB5cxx11 = internal global %"class.std::vector" zeroinitializer, align 8
@.str.7 = private unnamed_addr constant [2 x i8] c"\0A\00", align 1
@.str.41 = private unnamed_addr constant [27 x i8] c"Entry histogram for trick \00", align 1
@.str.42 = private unnamed_addr constant [9 x i8] c", hands \00", align 1
@.str.43 = private unnamed_addr constant [25 x i8] c"Overall entry histogram\0A\00", align 1

; Function Attrs: mustprogress nounwind uwtable
define linkonce_odr noundef nonnull align 8 dereferenceable(32) ptr @_ZNSt6vectorINSt7__cxx1112basic_stringIcSt11char_traitsIcESaIcEEESaIS5_EEixEm(ptr noundef nonnull align 8 dereferenceable(24) %0, i64 noundef %1) #5 comdat align 2 {
  %3 = alloca ptr, align 8
  %4 = alloca i64, align 8
  store ptr %0, ptr %3, align 8
  store i64 %1, ptr %4, align 8
  %5 = load ptr, ptr %3, align 8
  %6 = getelementptr inbounds nuw %"struct.std::_Vector_base", ptr %5, i32 0, i32 0
  %7 = getelementptr inbounds nuw %"struct.std::_Vector_base<std::__cxx11::basic_string<char>, std::allocator<std::__cxx11::basic_string<char>>>::_Vector_impl_data", ptr %6, i32 0, i32 0
  %8 = load ptr, ptr %7, align 8
  %9 = load i64, ptr %4, align 8
  %10 = getelementptr inbounds %"class.std::__cxx11::basic_string", ptr %8, i64 %9
  ret ptr %10
}

; Function Attrs: mustprogress nounwind uwtable
define void @_ZNK11TransTableL15UpdateEntryHistEiiPiS0_RiS1_(ptr noundef nonnull align 8 dereferenceable(664216) %0, i32 noundef %1, i32 noundef %2, ptr noundef %3, ptr noundef %4, ptr noundef nonnull align 4 dereferenceable(4) %5, ptr noundef nonnull align 4 dereferenceable(4) %6) #5 align 2 {
  %8 = alloca ptr, align 8
  %9 = alloca i32, align 4
  %10 = alloca i32, align 4
  %11 = alloca ptr, align 8
  %12 = alloca ptr, align 8
  %13 = alloca ptr, align 8
  %14 = alloca ptr, align 8
  %15 = alloca ptr, align 8
  %16 = alloca i32, align 4
  %17 = alloca i32, align 4
  %18 = alloca i32, align 4
  %19 = alloca i32, align 4
  store ptr %0, ptr %8, align 8
  store i32 %1, ptr %9, align 4
  store i32 %2, ptr %10, align 4
  store ptr %3, ptr %11, align 8
  store ptr %4, ptr %12, align 8
  store ptr %5, ptr %13, align 8
  store ptr %6, ptr %14, align 8
  %20 = load ptr, ptr %8, align 8
  %21 = load ptr, ptr %13, align 8
  store i32 0, ptr %21, align 4
  store i32 0, ptr %16, align 4
  br label %22

22:                                               ; preds = %30, %7
  %23 = load i32, ptr %16, align 4
  %24 = icmp sle i32 %23, 125
  br i1 %24, label %25, label %33

25:                                               ; preds = %22
  %26 = load ptr, ptr %11, align 8
  %27 = load i32, ptr %16, align 4
  %28 = sext i32 %27 to i64
  %29 = getelementptr inbounds i32, ptr %26, i64 %28
  store i32 0, ptr %29, align 4
  br label %30

30:                                               ; preds = %25
  %31 = load i32, ptr %16, align 4
  %32 = add nsw i32 %31, 1
  store i32 %32, ptr %16, align 4
  br label %22, !llvm.loop !64

33:                                               ; preds = %22
  store i32 0, ptr %17, align 4
  br label %34

34:                                               ; preds = %100, %33
  %35 = load i32, ptr %17, align 4
  %36 = icmp slt i32 %35, 256
  br i1 %36, label %37, label %103

37:                                               ; preds = %34
  %38 = getelementptr inbounds nuw %class.TransTableL, ptr %20, i32 0, i32 9
  %39 = load i32, ptr %9, align 4
  %40 = sext i32 %39 to i64
  %41 = getelementptr inbounds [12 x [4 x ptr]], ptr %38, i64 0, i64 %40
  %42 = load i32, ptr %10, align 4
  %43 = sext i32 %42 to i64
  %44 = getelementptr inbounds [4 x ptr], ptr %41, i64 0, i64 %43
  %45 = load ptr, ptr %44, align 8
  %46 = load i32, ptr %17, align 4
  %47 = sext i32 %46 to i64
  %48 = getelementptr inbounds %"struct.TransTableL::distHashType", ptr %45, i64 %47
  store ptr %48, ptr %15, align 8
  store i32 0, ptr %18, align 4
  br label %49

49:                                               ; preds = %96, %37
  %50 = load i32, ptr %18, align 4
  %51 = load ptr, ptr %15, align 8
  %52 = getelementptr inbounds nuw %"struct.TransTableL::distHashType", ptr %51, i32 0, i32 0
  %53 = load i32, ptr %52, align 8
  %54 = icmp slt i32 %50, %53
  br i1 %54, label %55, label %99

55:                                               ; preds = %49
  %56 = load ptr, ptr %15, align 8
  %57 = getelementptr inbounds nuw %"struct.TransTableL::distHashType", ptr %56, i32 0, i32 2
  %58 = load i32, ptr %18, align 4
  %59 = sext i32 %58 to i64
  %60 = getelementptr inbounds [32 x %"struct.TransTableL::posSearchType"], ptr %57, i64 0, i64 %59
  %61 = getelementptr inbounds nuw %"struct.TransTableL::posSearchType", ptr %60, i32 0, i32 0
  %62 = load ptr, ptr %61, align 8
  %63 = getelementptr inbounds nuw %"struct.TransTableL::winBlockType", ptr %62, i32 0, i32 0
  %64 = load i32, ptr %63, align 4
  store i32 %64, ptr %19, align 4
  %65 = load ptr, ptr %11, align 8
  %66 = load i32, ptr %19, align 4
  %67 = sext i32 %66 to i64
  %68 = getelementptr inbounds i32, ptr %65, i64 %67
  %69 = load i32, ptr %68, align 4
  %70 = add nsw i32 %69, 1
  store i32 %70, ptr %68, align 4
  %71 = load ptr, ptr %12, align 8
  %72 = load i32, ptr %19, align 4
  %73 = sext i32 %72 to i64
  %74 = getelementptr inbounds i32, ptr %71, i64 %73
  %75 = load i32, ptr %74, align 4
  %76 = add nsw i32 %75, 1
  store i32 %76, ptr %74, align 4
  %77 = load i32, ptr %19, align 4
  %78 = load ptr, ptr %15, align 8
  %79 = getelementptr inbounds nuw %"struct.TransTableL::distHashType", ptr %78, i32 0, i32 2
  %80 = load i32, ptr %18, align 4
  %81 = sext i32 %80 to i64
  %82 = getelementptr inbounds [32 x %"struct.TransTableL::posSearchType"], ptr %79, i64 0, i64 %81
  %83 = getelementptr inbounds nuw %"struct.TransTableL::posSearchType", ptr %82, i32 0, i32 0
  %84 = load ptr, ptr %83, align 8
  %85 = getelementptr inbounds nuw %"struct.TransTableL::winBlockType", ptr %84, i32 0, i32 1
  %86 = load i32, ptr %85, align 4
  %87 = icmp ne i32 %77, %86
  br i1 %87, label %88, label %95

88:                                               ; preds = %55
  %89 = load ptr, ptr %13, align 8
  %90 = load i32, ptr %89, align 4
  %91 = add nsw i32 %90, 1
  store i32 %91, ptr %89, align 4
  %92 = load ptr, ptr %14, align 8
  %93 = load i32, ptr %92, align 4
  %94 = add nsw i32 %93, 1
  store i32 %94, ptr %92, align 4
  br label %95

95:                                               ; preds = %88, %55
  br label %96

96:                                               ; preds = %95
  %97 = load i32, ptr %18, align 4
  %98 = add nsw i32 %97, 1
  store i32 %98, ptr %18, align 4
  br label %49, !llvm.loop !65

99:                                               ; preds = %49
  br label %100

100:                                              ; preds = %99
  %101 = load i32, ptr %17, align 4
  %102 = add nsw i32 %101, 1
  store i32 %102, ptr %17, align 4
  br label %34, !llvm.loop !66

103:                                              ; preds = %34
  ret void
}

; Function Attrs: mustprogress uwtable
define void @_ZNK11TransTableL18PrintAllEntryStatsERSt14basic_ofstreamIcSt11char_traitsIcEE(ptr noundef nonnull align 8 dereferenceable(664216) %0, ptr noundef nonnull align 8 dereferenceable(248) %1) unnamed_addr #4 align 2 {
  %3 = alloca ptr, align 8
  %4 = alloca ptr, align 8
  %5 = alloca [126 x i32], align 16
  %6 = alloca i32, align 4
  %7 = alloca i32, align 4
  %8 = alloca [126 x i32], align 16
  %9 = alloca i32, align 4
  %10 = alloca i32, align 4
  %11 = alloca i32, align 4
  store ptr %0, ptr %3, align 8
  store ptr %1, ptr %4, align 8
  %12 = load ptr, ptr %3, align 8
  store i32 0, ptr %7, align 4
  store i32 0, ptr %9, align 4
  br label %13

13:                                               ; preds = %20, %2
  %14 = load i32, ptr %9, align 4
  %15 = icmp sle i32 %14, 125
  br i1 %15, label %16, label %23

16:                                               ; preds = %13
  %17 = load i32, ptr %9, align 4
  %18 = sext i32 %17 to i64
  %19 = getelementptr inbounds [126 x i32], ptr %8, i64 0, i64 %18
  store i32 0, ptr %19, align 4
  br label %20

20:                                               ; preds = %16
  %21 = load i32, ptr %9, align 4
  %22 = add nsw i32 %21, 1
  store i32 %22, ptr %9, align 4
  br label %13, !llvm.loop !67

23:                                               ; preds = %13
  store i32 11, ptr %10, align 4
  br label %24

24:                                               ; preds = %53, %23
  %25 = load i32, ptr %10, align 4
  %26 = icmp sge i32 %25, 1
  br i1 %26, label %27, label %56

27:                                               ; preds = %24
  store i32 0, ptr %11, align 4
  br label %28

28:                                               ; preds = %49, %27
  %29 = load i32, ptr %11, align 4
  %30 = icmp slt i32 %29, 4
  br i1 %30, label %31, label %52

31:                                               ; preds = %28
  %32 = load i32, ptr %10, align 4
  %33 = load i32, ptr %11, align 4
  %34 = getelementptr inbounds [126 x i32], ptr %5, i64 0, i64 0
  %35 = getelementptr inbounds [126 x i32], ptr %8, i64 0, i64 0
  call void @_ZNK11TransTableL15UpdateEntryHistEiiPiS0_RiS1_(ptr noundef nonnull align 8 dereferenceable(664216) %12, i32 noundef %32, i32 noundef %33, ptr noundef %34, ptr noundef %35, ptr noundef nonnull align 4 dereferenceable(4) %6, ptr noundef nonnull align 4 dereferenceable(4) %7)
  %36 = load ptr, ptr %4, align 8
  %37 = call noundef nonnull align 8 dereferenceable(8) ptr @_ZStlsISt11char_traitsIcEERSt13basic_ostreamIcT_ES5_PKc(ptr noundef nonnull align 8 dereferenceable(8) %36, ptr noundef @.str.41)
  %38 = load i32, ptr %10, align 4
  %39 = call noundef nonnull align 8 dereferenceable(8) ptr @_ZNSolsEi(ptr noundef nonnull align 8 dereferenceable(8) %37, i32 noundef %38)
  %40 = call noundef nonnull align 8 dereferenceable(8) ptr @_ZStlsISt11char_traitsIcEERSt13basic_ostreamIcT_ES5_PKc(ptr noundef nonnull align 8 dereferenceable(8) %39, ptr noundef @.str.42)
  %41 = load i32, ptr %11, align 4
  %42 = zext i32 %41 to i64
  %43 = call noundef nonnull align 8 dereferenceable(32) ptr @_ZNSt6vectorINSt7__cxx1112basic_stringIcSt11char_traitsIcESaIcEEESaIS5_EEixEm(ptr noundef nonnull align 8 dereferenceable(24) @_ZL7playersB5cxx11, i64 noundef %42) #3
  %44 = call noundef nonnull align 8 dereferenceable(8) ptr @_ZStlsIcSt11char_traitsIcESaIcEERSt13basic_ostreamIT_T0_ES7_RKNSt7__cxx1112basic_stringIS4_S5_T1_EE(ptr noundef nonnull align 8 dereferenceable(8) %40, ptr noundef nonnull align 8 dereferenceable(32) %43)
  %45 = call noundef nonnull align 8 dereferenceable(8) ptr @_ZStlsISt11char_traitsIcEERSt13basic_ostreamIcT_ES5_PKc(ptr noundef nonnull align 8 dereferenceable(8) %44, ptr noundef @.str.7)
  %46 = load ptr, ptr %4, align 8
  %47 = getelementptr inbounds [126 x i32], ptr %5, i64 0, i64 0
  %48 = load i32, ptr %6, align 4
  call void @_ZNK11TransTableL9PrintHistERSt14basic_ofstreamIcSt11char_traitsIcEEPKiii(ptr noundef nonnull align 8 dereferenceable(664216) %12, ptr noundef nonnull align 8 dereferenceable(248) %46, ptr noundef %47, i32 noundef %48, i32 noundef 125)
  br label %49

49:                                               ; preds = %31
  %50 = load i32, ptr %11, align 4
  %51 = add nsw i32 %50, 1
  store i32 %51, ptr %11, align 4
  br label %28, !llvm.loop !68

52:                                               ; preds = %28
  br label %53

53:                                               ; preds = %52
  %54 = load i32, ptr %10, align 4
  %55 = add nsw i32 %54, -1
  store i32 %55, ptr %10, align 4
  br label %24, !llvm.loop !69

56:                                               ; preds = %24
  %57 = load ptr, ptr %4, align 8
  %58 = call noundef nonnull align 8 dereferenceable(8) ptr @_ZStlsISt11char_traitsIcEERSt13basic_ostreamIcT_ES5_PKc(ptr noundef nonnull align 8 dereferenceable(8) %57, ptr noundef @.str.43)
  %59 = load ptr, ptr %4, align 8
  %60 = getelementptr inbounds [126 x i32], ptr %8, i64 0, i64 0
  %61 = load i32, ptr %7, align 4
  call void @_ZNK11TransTableL9PrintHistERSt14basic_ofstreamIcSt11char_traitsIcEEPKiii(ptr noundef nonnull align 8 dereferenceable(664216) %12, ptr noundef nonnull align 8 dereferenceable(248) %59, ptr noundef %60, i32 noundef %61, i32 noundef 125)
  ret void
}