; Function Attrs: mustprogress uwtable
define void @_ZNK11TransTableL18PrintAllEntryStatsERSt14basic_ofstreamIcSt11char_traitsIcEE(ptr nocapture noundef nonnull readonly align 8 dereferenceable(664216) %0, ptr noundef nonnull align 8 dereferenceable(248) %1) unnamed_addr #21 align 2 {
.preheader25:
  %2 = alloca [126 x i32], align 16
  %3 = alloca [126 x i32], align 16
  call void @llvm.memset.p0.i64(ptr noundef nonnull align 16 dereferenceable(504) %3, i8 0, i64 504, i1 false)
  %4 = getelementptr inbounds nuw i8, ptr %0, i64 655416
  br label %.preheader

.preheader:                                       ; preds = %.preheader25, %36
  %indvars.iv34 = phi i64 [ 11, %.preheader25 ], [ %indvars.iv.next35, %36 ]
  %.02029 = phi i32 [ 0, %.preheader25 ], [ %.3, %36 ]
  %5 = trunc nuw nsw i64 %indvars.iv34 to i32
  br label %6

6:                                                ; preds = %.preheader, %_ZNK11TransTableL15UpdateEntryHistEiiPiS0_RiS1_.exit
  %indvars.iv = phi i64 [ 0, %.preheader ], [ %indvars.iv.next, %_ZNK11TransTableL15UpdateEntryHistEiiPiS0_RiS1_.exit ]
  %.127 = phi i32 [ %.02029, %.preheader ], [ %.3, %_ZNK11TransTableL15UpdateEntryHistEiiPiS0_RiS1_.exit ]
  call void @llvm.memset.p0.i64(ptr noundef nonnull align 16 dereferenceable(504) %2, i8 0, i64 504, i1 false)
  %7 = getelementptr inbounds [12 x [4 x ptr]], ptr %4, i64 0, i64 %indvars.iv34, i64 %indvars.iv
  %8 = load ptr, ptr %7, align 8
  br label %9

9:                                                ; preds = %._crit_edge.i, %6
  %.021 = phi i32 [ 0, %6 ], [ %.122, %._crit_edge.i ]
  %.2 = phi i32 [ %.127, %6 ], [ %.3, %._crit_edge.i ]
  %indvars.iv31.i = phi i64 [ 0, %6 ], [ %indvars.iv.next32.i, %._crit_edge.i ]
  %10 = getelementptr inbounds %"struct.TransTableL::distHashType", ptr %8, i64 %indvars.iv31.i
  %11 = load i32, ptr %10, align 8
  %12 = icmp sgt i32 %11, 0
  br i1 %12, label %.lr.ph.i, label %._crit_edge.i

.lr.ph.i:                                         ; preds = %9
  %13 = getelementptr inbounds nuw i8, ptr %10, i64 8
  %14 = zext nneg i32 %11 to i64
  br label %15

15:                                               ; preds = %15, %.lr.ph.i
  %.223 = phi i32 [ %.021, %.lr.ph.i ], [ %.324, %15 ]
  %.4 = phi i32 [ %.2, %.lr.ph.i ], [ %.5, %15 ]
  %indvars.iv.i = phi i64 [ 0, %.lr.ph.i ], [ %indvars.iv.next.i, %15 ]
  %16 = getelementptr inbounds [32 x %"struct.TransTableL::posSearchType"], ptr %13, i64 0, i64 %indvars.iv.i
  %17 = load ptr, ptr %16, align 8
  %18 = load i32, ptr %17, align 4
  %19 = sext i32 %18 to i64
  %20 = getelementptr inbounds i32, ptr %2, i64 %19
  %21 = load i32, ptr %20, align 4
  %22 = add nsw i32 %21, 1
  store i32 %22, ptr %20, align 4
  %23 = getelementptr inbounds i32, ptr %3, i64 %19
  %24 = load i32, ptr %23, align 4
  %25 = add nsw i32 %24, 1
  store i32 %25, ptr %23, align 4
  %26 = getelementptr inbounds nuw i8, ptr %17, i64 4
  %27 = load i32, ptr %26, align 4
  %.not.i = icmp ne i32 %18, %27
  %28 = zext i1 %.not.i to i32
  %.324 = add nsw i32 %.223, %28
  %.5 = add nsw i32 %.4, %28
  %indvars.iv.next.i = add nuw nsw i64 %indvars.iv.i, 1
  %exitcond.not = icmp eq i64 %indvars.iv.next.i, %14
  br i1 %exitcond.not, label %._crit_edge.i, label %15, !llvm.loop !90

._crit_edge.i:                                    ; preds = %15, %9
  %.122 = phi i32 [ %.021, %9 ], [ %.324, %15 ]
  %.3 = phi i32 [ %.2, %9 ], [ %.5, %15 ]
  %indvars.iv.next32.i = add nuw nsw i64 %indvars.iv31.i, 1
  %exitcond.not.i = icmp eq i64 %indvars.iv.next32.i, 256
  br i1 %exitcond.not.i, label %_ZNK11TransTableL15UpdateEntryHistEiiPiS0_RiS1_.exit, label %9, !llvm.loop !91

_ZNK11TransTableL15UpdateEntryHistEiiPiS0_RiS1_.exit: ; preds = %._crit_edge.i
  %29 = tail call noundef nonnull align 8 dereferenceable(8) ptr @_ZStlsISt11char_traitsIcEERSt13basic_ostreamIcT_ES5_PKc(ptr noundef nonnull align 8 dereferenceable(8) %1, ptr noundef nonnull @.str.41)
  %30 = tail call noundef nonnull align 8 dereferenceable(8) ptr @_ZNSolsEi(ptr noundef nonnull align 8 dereferenceable(8) %29, i32 noundef %5)
  %31 = tail call noundef nonnull align 8 dereferenceable(8) ptr @_ZStlsISt11char_traitsIcEERSt13basic_ostreamIcT_ES5_PKc(ptr noundef nonnull align 8 dereferenceable(8) %30, ptr noundef nonnull @.str.42)
  %32 = load ptr, ptr @_ZL7playersB5cxx11, align 8
  %33 = getelementptr inbounds %"class.std::__cxx11::basic_string", ptr %32, i64 %indvars.iv
  %34 = tail call noundef nonnull align 8 dereferenceable(8) ptr @_ZStlsIcSt11char_traitsIcESaIcEERSt13basic_ostreamIT_T0_ES7_RKNSt7__cxx1112basic_stringIS4_S5_T1_EE(ptr noundef nonnull align 8 dereferenceable(8) %31, ptr noundef nonnull align 8 dereferenceable(32) %33)
  %35 = tail call noundef nonnull align 8 dereferenceable(8) ptr @_ZStlsISt11char_traitsIcEERSt13basic_ostreamIcT_ES5_PKc(ptr noundef nonnull align 8 dereferenceable(8) %34, ptr noundef nonnull @.str.7)
  call void @_ZNK11TransTableL9PrintHistERSt14basic_ofstreamIcSt11char_traitsIcEEPKiii(ptr nonnull align 8 poison, ptr noundef nonnull align 8 dereferenceable(248) %1, ptr noundef nonnull %2, i32 noundef %.122, i32 noundef 125)
  %indvars.iv.next = add nuw nsw i64 %indvars.iv, 1
  %exitcond33.not = icmp eq i64 %indvars.iv.next, 4
  br i1 %exitcond33.not, label %36, label %6, !llvm.loop !92

36:                                               ; preds = %_ZNK11TransTableL15UpdateEntryHistEiiPiS0_RiS1_.exit
  %indvars.iv.next35 = add nsw i64 %indvars.iv34, -1
  %37 = icmp ugt i64 %indvars.iv34, 1
  br i1 %37, label %.preheader, label %38, !llvm.loop !93

38:                                               ; preds = %36
  %39 = tail call noundef nonnull align 8 dereferenceable(8) ptr @_ZStlsISt11char_traitsIcEERSt13basic_ostreamIcT_ES5_PKc(ptr noundef nonnull align 8 dereferenceable(8) %1, ptr noundef nonnull @.str.43)
  call void @_ZNK11TransTableL9PrintHistERSt14basic_ofstreamIcSt11char_traitsIcEEPKiii(ptr nonnull align 8 poison, ptr noundef nonnull align 8 dereferenceable(248) %1, ptr noundef nonnull %3, i32 noundef %.3, i32 noundef 125)
  ret void
}